; Function Attrs: mustprogress null_pointer_is_valid sspstrong uwtable
define void @_ZN21FilterExpressionFrame48on_filterExpressionPreferencesPushButton_clickedEv(ptr noundef align 8 dereferenceable_or_null(68) initializes((64, 68)) %0) local_unnamed_addr #0 align 2 personality ptr @__gxx_personality_v0 {
  %2 = alloca %class.QString, align 8
  %3 = getelementptr inbounds nuw i8, ptr %0, i64 56
  %4 = load ptr, ptr %3, align 8
  %5 = getelementptr inbounds nuw i8, ptr %4, i64 64
  %6 = load ptr, ptr %5, align 8
  tail call void @_ZN9QLineEdit5clearEv(ptr noundef align 8 dereferenceable_or_null(40) %6)
  %7 = load ptr, ptr %3, align 8
  %8 = getelementptr inbounds nuw i8, ptr %7, i64 88
  %9 = load ptr, ptr %8, align 8
  tail call void @_ZN9QLineEdit5clearEv(ptr noundef align 8 dereferenceable_or_null(40) %9)
  %10 = load ptr, ptr %3, align 8
  %11 = getelementptr inbounds nuw i8, ptr %10, i64 112
  %12 = load ptr, ptr %11, align 8
  tail call void @_ZN9QLineEdit5clearEv(ptr noundef align 8 dereferenceable_or_null(40) %12)
  %13 = getelementptr inbounds nuw i8, ptr %0, i64 64
  store i32 -1, ptr %13, align 8
  tail call void @_ZN14AccordionFrame12animatedHideEv(ptr noundef align 8 dereferenceable_or_null(68) %0)
  call void @_ZN10PrefsModel12typeToStringEi(ptr dead_on_unwind nonnull writable sret(%class.QString) align 8 %2, i32 noundef 263)
  invoke void @_ZN21FilterExpressionFrame21showPreferencesDialogE7QString(ptr noundef align 8 dereferenceable_or_null(68) %0, ptr noundef nonnull %2)
          to label %14 unwind label %19

14:                                               ; preds = %1
  %15 = load ptr, ptr %2, align 8
  %.not.i.i.i = icmp eq ptr %15, null
  br i1 %.not.i.i.i, label %_ZN7QStringD2Ev.exit, label %_ZN17QArrayDataPointerIDsE5derefEv.exit.i.i

_ZN17QArrayDataPointerIDsE5derefEv.exit.i.i:      ; preds = %14
  %16 = atomicrmw sub ptr %15, i32 1 seq_cst, align 4
  %.not.i.i = icmp eq i32 %16, 1
  br i1 %.not.i.i, label %17, label %_ZN7QStringD2Ev.exit

17:                                               ; preds = %_ZN17QArrayDataPointerIDsE5derefEv.exit.i.i
  %18 = load ptr, ptr %2, align 8
  call void @_ZN10QArrayData10deallocateEPS_xx(ptr noundef %18, i64 noundef 2, i64 noundef 8) #13
  br label %_ZN7QStringD2Ev.exit

_ZN7QStringD2Ev.exit:                             ; preds = %14, %_ZN17QArrayDataPointerIDsE5derefEv.exit.i.i, %17
  ret void

19:                                               ; preds = %1
  %20 = landingpad { ptr, i32 }
          cleanup
  %21 = load ptr, ptr %2, align 8
  %.not.i.i.i2 = icmp eq ptr %21, null
  br i1 %.not.i.i.i2, label %_ZN7QStringD2Ev.exit5, label %_ZN17QArrayDataPointerIDsE5derefEv.exit.i.i3

_ZN17QArrayDataPointerIDsE5derefEv.exit.i.i3:     ; preds = %19
  %22 = atomicrmw sub ptr %21, i32 1 seq_cst, align 4
  %.not.i.i4 = icmp eq i32 %22, 1
  br i1 %.not.i.i4, label %23, label %_ZN7QStringD2Ev.exit5

23:                                               ; preds = %_ZN17QArrayDataPointerIDsE5derefEv.exit.i.i3
  %24 = load ptr, ptr %2, align 8
  call void @_ZN10QArrayData10deallocateEPS_xx(ptr noundef %24, i64 noundef 2, i64 noundef 8) #13
  br label %_ZN7QStringD2Ev.exit5

_ZN7QStringD2Ev.exit5:                            ; preds = %19, %_ZN17QArrayDataPointerIDsE5derefEv.exit.i.i3, %23
  resume { ptr, i32 } %20
}